; Function Attrs: nounwind uwtable
define range(i32 -2147483648, 1) i32 @av_parse_ratio(ptr noundef %0, ptr noundef %1, i32 noundef %2, i32 noundef %3, ptr noundef %4) local_unnamed_addr #0 {
  %6 = alloca i8, align 1
  %7 = alloca double, align 8
  call void @llvm.lifetime.start.p0(i64 1, ptr nonnull %6) #16
  %8 = getelementptr inbounds nuw i8, ptr %0, i64 4
  %9 = call i32 (ptr, ptr, ...) @__isoc99_sscanf(ptr noundef %1, ptr noundef nonnull @.str, ptr noundef %0, ptr noundef nonnull %8, ptr noundef nonnull %6) #16
  %.not = icmp eq i32 %9, 2
  br i1 %.not, label %16, label %10

10:                                               ; preds = %5
  call void @llvm.lifetime.start.p0(i64 8, ptr nonnull %7) #16
  %11 = call i32 @av_expr_parse_and_eval(ptr noundef nonnull %7, ptr noundef %1, ptr noundef null, ptr noundef null, ptr noundef null, ptr noundef null, ptr noundef null, ptr noundef null, ptr noundef null, i32 noundef %3, ptr noundef %4) #16
  %12 = icmp sgt i32 %11, -1
  br i1 %12, label %13, label %.critedge

13:                                               ; preds = %10
  %14 = load double, ptr %7, align 8, !tbaa !4
  %15 = call i64 @av_d2q(double noundef %14, i32 noundef %2) #17
  store i64 %15, ptr %0, align 4
  call void @llvm.lifetime.end.p0(i64 8, ptr nonnull %7) #16
  br label %23

16:                                               ; preds = %5
  %17 = load i32, ptr %0, align 4, !tbaa !8
  %18 = sext i32 %17 to i64
  %19 = load i32, ptr %8, align 4, !tbaa !11
  %20 = sext i32 %19 to i64
  %21 = sext i32 %2 to i64
  %22 = call i32 @av_reduce(ptr noundef nonnull %0, ptr noundef nonnull %8, i64 noundef %18, i64 noundef %20, i64 noundef %21) #16
  br label %23

.critedge:                                        ; preds = %10
  call void @llvm.lifetime.end.p0(i64 8, ptr nonnull %7) #16
  br label %23

23:                                               ; preds = %16, %13, %.critedge
  %.1 = phi i32 [ %11, %.critedge ], [ 0, %13 ], [ 0, %16 ]
  call void @llvm.lifetime.end.p0(i64 1, ptr nonnull %6) #16
  ret i32 %.1
}